; Function Attrs: nounwind uwtable
define i32 @Bac_BoxCountOutputs(ptr noundef readonly captures(none) %0, ptr noundef %1) local_unnamed_addr #0 {
  %3 = load ptr, ptr %0, align 8, !tbaa !64
  %4 = getelementptr i8, ptr %3, i64 24
  %.val = load ptr, ptr %4, align 8, !tbaa !68
  %5 = tail call i32 @Abc_NamStrFind(ptr noundef %.val, ptr noundef %1) #19
  %6 = icmp eq i32 %5, 0
  br i1 %6, label %14, label %Bac_ManNtkIsOk.exit.i

Bac_ManNtkIsOk.exit.i:                            ; preds = %2
  %7 = load ptr, ptr %0, align 8, !tbaa !64
  %8 = icmp sgt i32 %5, 0
  tail call void @llvm.assume(i1 %8)
  %9 = getelementptr i8, ptr %7, i64 36
  %.val.i.i = load i32, ptr %9, align 4, !tbaa !73
  %.not4.i = icmp sle i32 %5, %.val.i.i
  tail call void @llvm.assume(i1 %.not4.i)
  %10 = getelementptr inbounds nuw i8, ptr %7, i64 40
  %11 = load ptr, ptr %10, align 8, !tbaa !74
  %12 = zext nneg i32 %5 to i64
  %13 = getelementptr %struct.Bac_Ntk_t_, ptr %11, i64 %12, i32 8
  %.val6 = load i32, ptr %13, align 8, !tbaa !75
  br label %14

14:                                               ; preds = %2, %Bac_ManNtkIsOk.exit.i
  %.0 = phi i32 [ %.val6, %Bac_ManNtkIsOk.exit.i ], [ 1, %2 ]
  ret i32 %.0
}